

Microchip Technology PIC LITE Macro Assembler V1.35 build -356382666 
                                                                                               Fri Oct 16 13:50:55 2015

Microchip Technology Omniscient Code Generator v1.35 (Free mode) build 201507080246
     1                           	processor	16F628A
     2                           	opt	pw 120
     3                           	opt	lm
     4                           	psect	cinit,global,class=CODE,merge=1,delta=2
     5                           	psect	cstackCOMMON,global,class=COMMON,space=1,delta=1
     6                           	psect	maintext,global,class=CODE,split=1,delta=2
     7                           	dabs	1,0x7E,2
     8  0000                     	;# 
     9  0001                     	;# 
    10  0002                     	;# 
    11  0003                     	;# 
    12  0004                     	;# 
    13  0005                     	;# 
    14  0006                     	;# 
    15  000A                     	;# 
    16  000B                     	;# 
    17  000C                     	;# 
    18  000E                     	;# 
    19  000E                     	;# 
    20  000F                     	;# 
    21  0010                     	;# 
    22  0011                     	;# 
    23  0012                     	;# 
    24  0015                     	;# 
    25  0015                     	;# 
    26  0016                     	;# 
    27  0017                     	;# 
    28  0018                     	;# 
    29  0019                     	;# 
    30  001A                     	;# 
    31  001F                     	;# 
    32  0081                     	;# 
    33  0085                     	;# 
    34  0086                     	;# 
    35  008C                     	;# 
    36  008E                     	;# 
    37  0092                     	;# 
    38  0098                     	;# 
    39  0099                     	;# 
    40  009A                     	;# 
    41  009B                     	;# 
    42  009C                     	;# 
    43  009D                     	;# 
    44  009F                     	;# 
    45  001F                     _CMCON	set	31
    46  0028                     _RA0	set	40
    47  0030                     _RB0	set	48
    48  0428                     _TRISA0	set	1064
    49  0430                     _TRISB0	set	1072
    50                           
    51                           ; #config settings
    52  0000                     
    53                           	psect	cinit
    54  07FE                     start_initialization:	
    55  07FE                     __initialization:	
    56  07FE                     end_of_initialization:	
    57                           ;End of C runtime variable initialization code
    58                           
    59  07FE                     __end_of__initialization:	
    60  07FE  0183               	clrf	3
    61  07FF  2FE2               	ljmp	_main	;jump to C main() function
    62                           
    63                           	psect	cstackCOMMON
    64  0070                     __pcstackCOMMON:	
    65  0070                     ??_main:	
    66  0070                     ?_main:	
    67                           ; 0 bytes @ 0x0
    68                           
    69                           
    70                           ; 2 bytes @ 0x0
    71  0070                     	ds	3
    72                           
    73                           	psect	maintext
    74  07E2                     __pmaintext:	
    75 ;;
    76 ;;Main: autosize = 0, tempsize = 3, incstack = 0, save=0
    77 ;;
    78 ;; *************** function _main *****************
    79 ;; Defined at:
    80 ;;		line 23 in file "led blink 1 knapp v3 kombination.c"
    81 ;; Parameters:    Size  Location     Type
    82 ;;		None
    83 ;; Auto vars:     Size  Location     Type
    84 ;;		None
    85 ;; Return value:  Size  Location     Type
    86 ;;                  2   14[None  ] int 
    87 ;; Registers used:
    88 ;;		wreg
    89 ;; Tracked objects:
    90 ;;		On entry : B00/0
    91 ;;		On exit  : 0/0
    92 ;;		Unchanged: 0/0
    93 ;; Data sizes:     COMMON   BANK0   BANK1   BANK2
    94 ;;      Params:         0       0       0       0
    95 ;;      Locals:         0       0       0       0
    96 ;;      Temps:          3       0       0       0
    97 ;;      Totals:         3       0       0       0
    98 ;;Total ram usage:        3 bytes
    99 ;; This function calls:
   100 ;;		Nothing
   101 ;; This function is called by:
   102 ;;		Startup code after reset
   103 ;; This function uses a non-reentrant model
   104 ;;
   105                           
   106                           
   107                           ;psect for function _main
   108  07E2                     _main:	
   109                           
   110                           ;led blink 1 knapp v3 kombination.c: 25: TRISB0 = 0;
   111                           
   112                           ;incstack = 0
   113                           ; Regs used in _main: [wreg]
   114  07E2  1683               	bsf	3,5	;RP0=1, select bank1
   115  07E3  1303               	bcf	3,6	;RP1=0, select bank1
   116  07E4  1006               	bcf	6,0	;volatile
   117                           
   118                           ;led blink 1 knapp v3 kombination.c: 26: TRISA0 = 1;
   119  07E5  1405               	bsf	5,0	;volatile
   120                           
   121                           ;led blink 1 knapp v3 kombination.c: 27: CMCON = 0x07;
   122  07E6  3007               	movlw	7
   123  07E7  1283               	bcf	3,5	;RP0=0, select bank0
   124  07E8  1303               	bcf	3,6	;RP1=0, select bank0
   125  07E9  009F               	movwf	31	;volatile
   126  07EA                     L1:	
   127                           
   128                           ;led blink 1 knapp v3 kombination.c: 30: RB0 = 0;
   129  07EA  1006               	bcf	6,0	;volatile
   130  07EB                     l485:	
   131                           ;led blink 1 knapp v3 kombination.c: 32: while(1)
   132                           
   133                           
   134                           ;led blink 1 knapp v3 kombination.c: 33: {
   135                           ;led blink 1 knapp v3 kombination.c: 34: if(RA0 == 0)
   136  07EB  1805               	btfsc	5,0	;volatile
   137  07EC  2FEB               	goto	l485
   138                           
   139                           ;led blink 1 knapp v3 kombination.c: 35: {
   140                           ;led blink 1 knapp v3 kombination.c: 36: RB0 = 1;
   141  07ED  1406               	bsf	6,0	;volatile
   142                           
   143                           ;led blink 1 knapp v3 kombination.c: 37: _delay((unsigned long)((3000)*(4000000/4000.0))
      +                          );
   144  07EE  3010               	movlw	16
   145  07EF  00F2               	movwf	??_main+2
   146  07F0  3039               	movlw	57
   147  07F1  00F1               	movwf	??_main+1
   148  07F2  301B               	movlw	27
   149  07F3  00F0               	movwf	??_main
   150  07F4                     u27:	
   151  07F4  0BF0               	decfsz	??_main,f
   152  07F5  2FF4               	goto	u27
   153  07F6  0BF1               	decfsz	??_main+1,f
   154  07F7  2FF4               	goto	u27
   155  07F8  0BF2               	decfsz	??_main+2,f
   156  07F9  2FF4               	goto	u27
   157  07FA  2FFB               	nop2
   158                           
   159                           ;led blink 1 knapp v3 kombination.c: 38: RB0 = 0;
   160  07FB  1283               	bcf	3,5	;RP0=0, select bank0
   161  07FC  1303               	bcf	3,6	;RP1=0, select bank0
   162  07FD  2FEA               	goto	L1
   163  07FE                     __end_of_main:	
   164                           ;led blink 1 knapp v3 kombination.c: 39: }
   165                           ;led blink 1 knapp v3 kombination.c: 40: }
   166                           ;led blink 1 knapp v3 kombination.c: 41: return 0;
   167                           ;	Return value of _main is never used
   168                           
   169  007E                     btemp	set	126	;btemp
   170  007E                     wtemp	set	126
   171  007E                     wtemp0	set	126
   172  0080                     wtemp1	set	128
   173  0082                     wtemp2	set	130
   174  0084                     wtemp3	set	132
   175  0086                     wtemp4	set	134
   176  0088                     wtemp5	set	136
   177  007F                     wtemp6	set	127
   178  007E                     ttemp	set	126
   179  007E                     ttemp0	set	126
   180  0081                     ttemp1	set	129
   181  0084                     ttemp2	set	132
   182  0087                     ttemp3	set	135
   183  007F                     ttemp4	set	127
   184  007E                     ltemp	set	126
   185  007E                     ltemp0	set	126
   186  0082                     ltemp1	set	130
   187  0086                     ltemp2	set	134
   188  0080                     ltemp3	set	128


Data Sizes:
    Strings     0
    Constant    0
    Data        0
    BSS         0
    Persistent  0
    Stack       0

Auto Spaces:
    Space          Size  Autos    Used
    COMMON           14      3       3
    BANK0            80      0       0
    BANK1            80      0       0
    BANK2            48      0       0

Pointer List with Targets:

    None.

Critical Paths under _main in COMMON

    None.

Critical Paths under _main in BANK0

    None.

Critical Paths under _main in BANK1

    None.

Critical Paths under _main in BANK2

    None.

Call Graph Tables:

 ---------------------------------------------------------------------------------
 (Depth) Function   	        Calls       Base Space   Used Autos Params    Refs
 ---------------------------------------------------------------------------------
 (0) _main                                                 3     3      0       0
                                              0 COMMON     3     3      0
 ---------------------------------------------------------------------------------
 Estimated maximum stack depth 0
 ---------------------------------------------------------------------------------

 Call Graph Graphs:

 _main (ROOT)

 Address spaces:
Name               Size   Autos  Total    Cost      Usage
BITCOMMON            E      0       0       0        0.0%
EEDATA              80      0       0       0        0.0%
NULL                 0      0       0       0        0.0%
CODE                 0      0       0       0        0.0%
COMMON               E      3       3       1       21.4%
BITSFR0              0      0       0       1        0.0%
SFR0                 0      0       0       1        0.0%
BITSFR1              0      0       0       2        0.0%
SFR1                 0      0       0       2        0.0%
STACK                0      0       0       2        0.0%
BANK0               50      0       0       3        0.0%
BITSFR3              0      0       0       4        0.0%
SFR3                 0      0       0       4        0.0%
ABS                  0      0       0       4        0.0%
BITBANK0            50      0       0       5        0.0%
BITSFR2              0      0       0       5        0.0%
SFR2                 0      0       0       5        0.0%
BITBANK1            50      0       0       6        0.0%
BANK1               50      0       0       7        0.0%
BITBANK2            30      0       0       8        0.0%
BANK2               30      0       0       9        0.0%
DATA                 0      0       0      10        0.0%


Microchip Technology PIC Macro Assembler V1.35 build -356382666 
Symbol Table                                                                                   Fri Oct 16 13:50:55 2015

                     u27 07F4                      l485 07EB                      _RA0 0028  
                    _RB0 0030             __CFG_LVP$OFF 0000                     _main 07E2  
                   btemp 007E                     ltemp 007E                     start 0000  
                   ttemp 007E                     wtemp 007E                    ?_main 0070  
          __CFG_WDTE$OFF 0000                    _CMCON 001F           __CFG_BOREN$OFF 0000  
                  ltemp0 007E                    ltemp1 0082                    ltemp2 0086  
                  ltemp3 0080                    ttemp0 007E                    ttemp1 0081  
                  ttemp2 0084                    ttemp3 0087                    ttemp4 007F  
                  status 0003                    wtemp0 007E                    wtemp1 0080  
                  wtemp2 0082                    wtemp3 0084                    wtemp4 0086  
                  wtemp5 0088                    wtemp6 007F          __initialization 07FE  
           __end_of_main 07FE                   ??_main 0070                   _TRISA0 0428  
                 _TRISB0 0430  __end_of__initialization 07FE           __pcstackCOMMON 0070  
             __pmaintext 07E2     end_of_initialization 07FE      start_initialization 07FE  
              ___latbits 0000            __size_of_main 001C       __CFG_FOSC$INTOSCIO 0000  
